(dp0
S'songid79'
p1
S'Katy Perry - Last Friday Night (T.G.I.F.) official music video teaser'
p2
sS'songid78'
p3
S'Katy Perry - Hot N Cold'
p4
sS'songid71'
p5
S'Justin Bieber - Beauty And A Beat ft. Nicki Minaj'
p6
sS'songid70'
p7
S'Justin Bieber - As Long As You Love Me ft. Big Sean'
p8
sS'songid73'
p9
S'Justin Bieber - One Time (Behind the Scenes)'
p10
sS'songid72'
p11
S'Justin Bieber - Ill Show You'
p12
sS'songid75'
p13
S'Justin Bieber, Usher - BabyNever Say NeverOMG (GRAMMYs on CBS) ft. Jaden Smith'
p14
sS'songid74'
p15
S'Justin Bieber - What Do You Mean'
p16
sS'songid77'
p17
S'Katy Perry - California Gurls ft. Snoop (Lyric Video)'
p18
sS'songid76'
p19
S'Justin Timberlake - Mirrors'
p20
sS'songid158'
p21
S'Zara Larsson - Lush Life'
p22
sS'songid157'
p23
S'Years & Years - Desire ft. Tove Lo'
p24
sS'songid156'
p25
S'Whitney Houston - I Will Always Love You'
p26
sS'songid155'
p27
S'WANNABE'
p28
sS'songid154'
p29
S'WALK THE MOON - Shut Up and Dance (Official Lyric Video)'
p30
sS'songid153'
p31
S'Tove Lo - Habits (Live, Vevo UK @ The Great Escape 2014)'
p32
sS'songid152'
p33
S'Tory Lanez - Say It'
p34
sS'songid151'
p35
S'The Weeknd Earned it lyrics video'
p36
sS'songid150'
p37
S'The Weeknd - Cant Feel My Face'
p38
sS'songid84'
p39
S'Kelly Clarkson - Piece by Piece'
p40
sS'songid85'
p41
S'Kendji Girac - Les yeux de la mama'
p42
sS'songid86'
p43
S'Kendji Girac, Soprano - No Me Mire\xcc\x80s Ma\xcc\x80s'
p44
sS'songid87'
p45
S'Little Mix - Secret Love Song (Official Video) ft. Jason Derulo'
p46
sS'songid80'
p47
S'Katy Perry - Roar (Official)'
p48
sS'songid81'
p49
S'Katy Perry - This Is How We Do (Official)'
p50
sS'songid82'
p51
S'Katy Perry - Wide Awake (Lyric Video)'
p52
sS'songid83'
p53
S'Katy Perry Firework Official Lyric Video'
p54
sS'songid88'
p55
S'Lorde - Royals (US Version)'
p56
sS'songid89'
p57
S'Love Yourself vs FCK Yourself  Yo Preston ft Kelly Kiara (Justin Bieber Response)'
p58
sS'songid140'
p59
S'Sia - Chandelier (Official Video)'
p60
sS'songid141'
p61
S'Sia - Cheap Thrills (Lyric Video) ft. Sean Paul'
p62
sS'songid9'
p63
S'Ariana Grande - One Last Time (Official)'
p64
sS'songid8'
p65
S'Ariana Grande - Focus'
p66
sS'songid144'
p67
S'Taylor Swift - Blank Space'
p68
sS'songid145'
p69
S'Taylor Swift - I Knew You Were Trouble'
p70
sS'songid146'
p71
S'Taylor Swift - Out Of The Woods'
p72
sS'songid147'
p73
S'Taylor Swift - Shake It Off'
p74
sS'songid3'
p75
S'a-ha - Take On Me (Official Video)'
p76
sS'songid2'
p77
S'A Great Big World, Christina Aguilera - Say Something'
p78
sS'songid1'
p79
S'FOB - My Songs Know What You Did In The Dark'
p80
sS'songid7'
p81
S'Ariana Grande - Break Free ft. Zedd'
p82
sS'songid6'
p83
S'Alessia Cara - Wild Things'
p84
sS'songid5'
p85
S'Aerosmith - I Dont Want to Miss a Thing'
p86
sS'songid4'
p87
S'Adele - Set Fire To The Rain (Live at The Royal Albert Hall)'
p88
sS'songid19'
p89
S'Bruno Mars - Just The Way You Are (Remix) ft. Lupe Fiasco'
p90
sS'songid18'
p91
S'Black Eyed Peas - My Humps [Lyrics]'
p92
sS'songid17'
p93
S'Beyonce\xcc\x81 Run The World (Girls) [Audio]'
p94
sS'songid16'
p95
S'Beyonce\xcc\x81 - If I Were A Boy (GRAMMYs on CBS)'
p96
sS'songid15'
p97
S'Beyonce\xcc\x81 - Halo (Live From Wynn Las Vegas)'
p98
sS'songid14'
p99
S'Beyonce\xcc\x81 - Drunk in Love (Explicit) ft. JAY Z'
p100
sS'songid13'
p101
S'Becky G - Shower (Audio)'
p102
sS'songid12'
p103
S'Bang (Clipe Oficial) - Anitta'
p104
sS'songid11'
p105
S'Ariana Grande, The Weeknd - Love Me Harder'
p106
sS'songid10'
p107
S'Ariana Grande - Problem ft. Iggy Azalea'
p108
sS'songid97'
p109
S'Maroon 5 - Moves Like Jagger ft. Christina Aguilera'
p110
sS'songid96'
p111
S'Maroon 5 - Maps (Explicit)'
p112
sS'songid95'
p113
S'Maroon 5 - Animals'
p114
sS'songid94'
p115
S'Mana\xcc\x81 - Mi Verdad a dueto con Shakira (Video Oficial)'
p116
sS'songid93'
p117
S'Major Lazer - Light It Up (feat. Nyla & Fuse ODG) [Remix] (Official Lyric Video)'
p118
sS'songid92'
p119
S'Mai\xcc\x82tre Gims - Est-ce que tu maimes  (Clip Officiel)'
p120
sS'songid91'
p121
S'MAGIC! - Rude (Acoustic)'
p122
sS'songid90'
p123
S'Lukas Graham -  7 Years [OFFICIAL MUSIC VIDEO]'
p124
sS'songid142'
p125
S'Stromae - Papaoutai'
p126
sS'songid99'
p127
S'Maroon 5 - Payphone (Explicit) ft. Wiz Khalifa'
p128
sS'songid98'
p129
S'Maroon 5 - One More Night'
p130
sS'songid135'
p131
S'Shakira - Cant Remember to Forget You ft. Rihanna'
p132
sS'songid134'
p133
S'SEREBRO - Mi Mi Mi (Official Video)'
p134
sS'songid137'
p135
S'Shakira - Waka Waka (This Time for Africa) (The Official 2010 FIFA World Cup\xe2\x84\xa2 Song)'
p136
sS'songid136'
p137
S'Shakira - La La La (Brazil 2014) ft. Carlinhos Brown'
p138
sS'songid131'
p139
S'Selena Gomez - Good For You'
p140
sS'songid130'
p141
S'Sam Smith - Stay With Me'
p142
sS'songid133'
p143
S'Selena Gomez - Same Old Love'
p144
sS'songid132'
p145
S'Selena Gomez - Hands To Myself'
p146
sS'songid139'
p147
S'Shawn Mendes, Camila Cabello - I Know What You Did Last Summer (Official Video)'
p148
sS'songid138'
p149
S'Shawn Mendes - Stitches (Official Video)'
p150
sS'songid22'
p151
S'Calvin Harris - Outside ft. Ellie Goulding'
p152
sS'songid23'
p153
S'Carly Rae Jepsen - Call Me Maybe'
p154
sS'songid20'
p155
S'Bruno Mars - When I Was Your Man [Official Video]'
p156
sS'songid21'
p157
S'Calvin Harris - I Need Your Love ft. Ellie Goulding'
p158
sS'songid26'
p159
S'Charlie Puth - One Call Away [Official Video]'
p160
sS'songid27'
p161
S'Chris Brown - Little More (Royalty) [Explicit Version]'
p162
sS'songid24'
p163
S'Ce\xcc\x81line Dion - My Heart Will Go On'
p164
sS'songid25'
p165
S'Charlie Puth - Marvin Gaye ft. Meghan Trainor [Official Video]'
p166
sS'songid28'
p167
S'Chris Brown - Loyal (Explicit) ft. Lil Wayne, Tyga'
p168
sS'songid29'
p169
S'Christina Aguilera - Pero Me Acuerdo De Ti\xcc\x81'
p170
sS'songid148'
p171
S'Taylor Swift - Wildest Dreams'
p172
sS'songid149'
p173
S'The Script - Hall of Fame (Lyric) ft. will.i.am'
p174
sS'songid126'
p175
S'Robin Thicke - Blurred Lines ft. T.I., Pharrell'
p176
sS'songid127'
p177
S'Roxette - Listen To Your Heart'
p178
sS'songid124'
p179
S'Rihanna - We Found Love (Audio) ft. Calvin Harris'
p180
sS'songid125'
p181
S'Rihanna - Where Have You Been'
p182
sS'songid122'
p183
S'Rachel Platten Fight Song [Lyric Video]'
p184
sS'songid123'
p185
S'Rihanna - Stay (Live on SNL) ft. Mikky Ekko'
p186
sS'songid120'
p187
S'Pia Mia - Do It Again ft. Chris Brown, Tyga'
p188
sS'songid121'
p189
S'Queen - I Want To Break Free (Official Video)'
p190
sS'songid128'
p191
S'Sam Hunt - Break Up In A Small Town'
p192
sS'songid129'
p193
S'Sam Smith - Lay Me Down'
p194
sS'songid35'
p195
S'Demi Lovato - Confident (Official Video)'
p196
sS'songid34'
p197
S'Cyndi Lauper True Colours Lyrics'
p198
sS'songid37'
p199
S'Dilemma by Nelly ft Kelly Rowland (Lyrics)'
p200
sS'songid36'
p201
S'Demi Lovato - Stone Cold (Official Video)'
p202
sS'songid31'
p203
S'Coldplay - Adventure Of A Lifetime (Official video)'
p204
sS'songid30'
p205
S'Clean Bandit - Rather Be ft. Jess Glynne [Official Video]'
p206
sS'songid33'
p207
S'Crazy Frog - Axel F'
p208
sS'songid32'
p209
S'Coldplay - Paradise (Official)'
p210
sS'songid39'
p211
S'Ed Sheeran - Thinking Out Loud [Official]'
p212
sS'songid38'
p213
S'Drake - Hotline Bling'
p214
sS'songid119'
p215
S'Passenger - Let Her Go [Official Video]'
p216
sS'songid118'
p217
S'P!nk - Just Give Me A Reason ft. Nate Ruess'
p218
sS'songid113'
p219
S'One Direction - Perfect (Official Video)'
p220
sS'songid112'
p221
S'One Direction - One Thing (Behind the Scenes)'
p222
sS'songid111'
p223
S'One Direction - Night Changes'
p224
sS'songid110'
p225
S'One Direction - Best Song Ever'
p226
sS'songid117'
p227
S'Owl City - Fireflies'
p228
sS'songid116'
p229
S'One Direction - What Makes You Beautiful (Lyric Video)'
p230
sS'songid115'
p231
S'One Direction - Story of My Life'
p232
sS'songid114'
p233
S'One Direction - Steal My Girl'
p234
sS'songid40'
p235
S'Ellie Goulding - Love Me Like You Do (Official Video)'
p236
sS'songid41'
p237
S'Ellie Goulding - On My Mind'
p238
sS'songid42'
p239
S'Eminem - Not Afraid (Behind The Scenes, Day 2)'
p240
sS'songid43'
p241
S'Enrique Iglesias - Bailando (Espan\xcc\x83ol) ft. Descemer Bueno, Gente De Zona'
p242
sS'songid44'
p243
S'Enrique Iglesias - No Me Digas Que No ft. Wisin, Yandel'
p244
sS'songid45'
p245
S'Every Breath You Take - Sting & The Police'
p246
sS'songid46'
p247
S'Fetty Wap My Way feat. Monty [Official Video]'
p248
sS'songid47'
p249
S'Fifth Harmony - Worth It ft. Kid Ink'
p250
sS'songid48'
p251
S'Flo Rida - Wild Ones ft. Sia [Official Video]'
p252
sS'songid49'
p253
S'Foreigner - Jukebox Hero (Official Lyric Video)'
p254
sS'songid108'
p255
S'Naughty Boy - La La La ft. Sam Smith'
p256
sS'songid109'
p257
S'Nicki Minaj - Super Bass (Edited)'
p258
sS'songid104'
p259
S'Meghan Trainor - Lips Are Movin'
p260
sS'songid105'
p261
S'Michael Jackson - Billie Jean'
p262
sS'songid106'
p263
S'Mike Posner - I Took A Pill In Ibiza (Seeb Remix) (Explicit)'
p264
sS'songid107'
p265
S'Miley Cyrus - Adore You'
p266
sS'songid100'
p267
S'Maroon 5 - She Will Be Loved'
p268
sS'songid101'
p269
S'Matheus & Kauan - A Rosa E O Beija Flor (Ao Vivo)'
p270
sS'songid102'
p271
S'Matt Simons - Catch & Release (Deepend remix) - Lyrics Video'
p272
sS'songid103'
p273
S'Meghan Trainor - All About That Bass'
p274
sS'songid143'
p275
S'Taylor Swift - 22'
p276
sS'songid53'
p277
S'Gotye - Somebody That I Used To Know (feat. Kimbra) - official video'
p278
sS'songid52'
p279
S'George Michael - Careless Whisper (Official Video)'
p280
sS'songid51'
p281
S'G-Eazy x Bebe Rexha - Me, Myself & I'
p282
sS'songid50'
p283
S'FROZEN - Let It Go Sing-along  Official Disney HD'
p284
sS'songid57'
p285
S'Henrique e Juliano - NA HORA DA RAIVA - DVD Novas Histo\xcc\x81rias - Ao vivo em Recife'
p286
sS'songid56'
p287
S'Halsey - Colors'
p288
sS'songid55'
p289
S'Hailee Steinfeld - Love Myself (Acoustic)'
p290
sS'songid54'
p291
S'HA-ASH - Perdo\xcc\x81n, Perdo\xcc\x81n'
p292
sS'songid59'
p293
S'Ill Be There Acapella'
p294
sS'songid58'
p295
S'Iggy Azalea - Fancy (Explicit) ft. Charli XCX'
p296
sS'songid66'
p297
S'Jessie J - Price Tag (VEVO LIFT Presents)'
p298
sS'songid67'
p299
S'John Legend - All of Me'
p300
sS'songid64'
p301
S'Jesse & Joy - \xc2\xa1Corre! (Video Oficial)'
p302
sS'songid65'
p303
S'Jessie J - Flashlight (from Pitch Perfect 2)'
p304
sS'songid62'
p305
S'Jason Derulo - Want To Want Me (Official Video)'
p306
sS'songid63'
p307
S'Jason Derulo - Wiggle feat. Snoop Dogg (Official HD Music Video)'
p308
sS'songid60'
p309
S'Indila - Dernie\xcc\x80re Danse (Clip Officiel)'
p310
sS'songid61'
p311
S'James Bay - Let It Go'
p312
sS'songid68'
p313
S'Just A Dream Nelly Lyrics'
p314
sS'songid69'
p315
S'Justin Bieber - #VevoCertified Baby (Video Commentary)'
p316
s.